target datalayout = "e-m:e-p270:32:32-p271:32:32-p272:64:64-i64:64-i128:128-f80:128-n8:16:32:64-S128"
target triple = "x86_64-pc-linux-gnu"

%"struct.cv::utils::trace::details::Region::LocationStaticStorage" = type { ptr, ptr, ptr, i32, i32 }
%"class.cv::utils::trace::details::Region" = type <{ ptr, i32, [4 x i8] }>

@_ZZN2cv7waitKeyEiE25__cv_trace_location_fn659 = internal constant %"struct.cv::utils::trace::details::Region::LocationStaticStorage" { ptr @_ZZN2cv7waitKeyEiE31__cv_trace_location_extra_fn659, ptr @.str.18, ptr @.str.1, i32 659, i32 1 }, align 8
@_ZZN2cv7waitKeyEiE10use_legacy = internal global i32 -1, align 4
@.str.19 = private unnamed_addr constant [22 x i8] c"OPENCV_LEGACY_WAITKEY\00", align 1

; Function Attrs: mustprogress uwtable
define noundef i32 @_ZN2cv7waitKeyEi(i32 noundef %0) #4 personality ptr @__gxx_personality_v0 {
  %2 = alloca i32, align 4
  %3 = alloca i32, align 4
  %4 = alloca %"class.cv::utils::trace::details::Region", align 8
  %5 = alloca i32, align 4
  %6 = alloca ptr, align 8
  %7 = alloca i32, align 4
  %8 = alloca i32, align 4
  store i32 %0, ptr %3, align 4
  call void @_ZN2cv5utils5trace7details6RegionC1ERKNS3_21LocationStaticStorageE(ptr noundef nonnull align 8 dereferenceable(12) %4, ptr noundef nonnull align 8 dereferenceable(32) @_ZZN2cv7waitKeyEiE25__cv_trace_location_fn659)
  %9 = load i32, ptr %3, align 4
  %10 = invoke noundef i32 @_ZN2cv9waitKeyExEi(i32 noundef %9)
          to label %11 unwind label %18

11:                                               ; preds = %1
  store i32 %10, ptr %5, align 4
  %12 = load i32, ptr @_ZZN2cv7waitKeyEiE10use_legacy, align 4
  %13 = icmp slt i32 %12, 0
  br i1 %13, label %14, label %22

14:                                               ; preds = %11
  %15 = call ptr @getenv(ptr noundef @.str.19) #3
  %16 = icmp ne ptr %15, null
  %17 = select i1 %16, i32 1, i32 0
  store i32 %17, ptr @_ZZN2cv7waitKeyEiE10use_legacy, align 4
  br label %22

18:                                               ; preds = %1
  %19 = landingpad { ptr, i32 }
          cleanup
  %20 = extractvalue { ptr, i32 } %19, 0
  store ptr %20, ptr %6, align 8
  %21 = extractvalue { ptr, i32 } %19, 1
  store i32 %21, ptr %7, align 4
  call void @_ZN2cv5utils5trace7details6RegionD2Ev(ptr noundef nonnull align 8 dereferenceable(12) %4) #3
  br label %38

22:                                               ; preds = %14, %11
  %23 = load i32, ptr @_ZZN2cv7waitKeyEiE10use_legacy, align 4
  %24 = icmp sgt i32 %23, 0
  br i1 %24, label %25, label %27

25:                                               ; preds = %22
  %26 = load i32, ptr %5, align 4
  store i32 %26, ptr %2, align 4
  store i32 1, ptr %8, align 4
  br label %36

27:                                               ; preds = %22
  %28 = load i32, ptr %5, align 4
  %29 = icmp ne i32 %28, -1
  br i1 %29, label %30, label %33

30:                                               ; preds = %27
  %31 = load i32, ptr %5, align 4
  %32 = and i32 %31, 255
  br label %34

33:                                               ; preds = %27
  br label %34

34:                                               ; preds = %33, %30
  %35 = phi i32 [ %32, %30 ], [ -1, %33 ]
  store i32 %35, ptr %2, align 4
  store i32 1, ptr %8, align 4
  br label %36

36:                                               ; preds = %34, %25
  call void @_ZN2cv5utils5trace7details6RegionD2Ev(ptr noundef nonnull align 8 dereferenceable(12) %4) #3
  %37 = load i32, ptr %2, align 4
  ret i32 %37

38:                                               ; preds = %18
  %39 = load ptr, ptr %6, align 8
  %40 = load i32, ptr %7, align 4
  %41 = insertvalue { ptr, i32 } poison, ptr %39, 0
  %42 = insertvalue { ptr, i32 } %41, i32 %40, 1
  resume { ptr, i32 } %42
}