; Function Attrs: mustprogress uwtable
define noundef i32 @_ZN2cv7waitKeyEi(i32 noundef %0) local_unnamed_addr #3 personality ptr @__gxx_personality_v0 {
  %2 = alloca %"class.cv::utils::trace::details::Region", align 8
  call void @_ZN2cv5utils5trace7details6RegionC1ERKNS3_21LocationStaticStorageE(ptr noundef nonnull align 8 dereferenceable(12) %2, ptr noundef nonnull align 8 dereferenceable(32) @_ZZN2cv7waitKeyEiE25__cv_trace_location_fn659)
  %3 = invoke noundef i32 @_ZN2cv9waitKeyExEi(i32 noundef %0)
          to label %4 unwind label %10

4:                                                ; preds = %1
  %5 = load i32, ptr @_ZZN2cv7waitKeyEiE10use_legacy, align 4
  %6 = icmp slt i32 %5, 0
  br i1 %6, label %7, label %12

7:                                                ; preds = %4
  %8 = call ptr @getenv(ptr noundef nonnull @.str.19) #20
  %.not = icmp ne ptr %8, null
  %9 = zext i1 %.not to i32
  store i32 %9, ptr @_ZZN2cv7waitKeyEiE10use_legacy, align 4
  br label %12

10:                                               ; preds = %1
  %11 = landingpad { ptr, i32 }
          cleanup
  call void @_ZN2cv5utils5trace7details6RegionD2Ev(ptr noundef nonnull align 8 dereferenceable(12) %2) #20
  resume { ptr, i32 } %11

12:                                               ; preds = %7, %4
  %13 = phi i32 [ %9, %7 ], [ %5, %4 ]
  %14 = getelementptr inbounds i8, ptr %2, i64 8
  %15 = load i32, ptr %14, align 8
  %.not.i = icmp eq i32 %15, 0
  br i1 %.not.i, label %_ZN2cv5utils5trace7details6RegionD2Ev.exit, label %16

16:                                               ; preds = %12
  invoke void @_ZN2cv5utils5trace7details6Region7destroyEv(ptr noundef nonnull align 8 dereferenceable(12) %2)
          to label %_ZN2cv5utils5trace7details6RegionD2Ev.exit unwind label %17

17:                                               ; preds = %16
  %18 = landingpad { ptr, i32 }
          catch ptr null
  %19 = extractvalue { ptr, i32 } %18, 0
  call void @__clang_call_terminate(ptr %19) #23
  unreachable

_ZN2cv5utils5trace7details6RegionD2Ev.exit:       ; preds = %12, %16
  %.not7 = icmp eq i32 %13, 0
  %.not6 = icmp eq i32 %3, -1
  %20 = and i32 %3, 255
  %21 = select i1 %.not6, i32 -1, i32 %20
  %.0 = select i1 %.not7, i32 %21, i32 %3
  ret i32 %.0
}